(dp0
I2
I253
sI3
I80
sI7
I167
sI9
I1797
sI12
I1859
sI15
I116
sI17
I419
sI21
I325
sI22
I62
sI23
I170
sI24
I1889
sS'201188'
p1
I2661
sI26
I171
sI28
I51
sI29
I183
sI31
I347
sI32
I134
sI35
I388
sI36
I387
sI37
I191
sI38
I385
sI42
I296
sI43
I344
sI45
I250
sI46
I1876
sI47
I309
sS'344'
p2
I2136
sI49
I338
sI51
I106
sI52
I416
sI53
I276
sI54
I180
sI55
I210
sI56
I185
sI57
I135
sS'348'
p3
I2240
sI61
I287
sI63
I103
sI64
I186
sI65
I216
sI66
I1877
sI67
I315
sI70
I175
sI71
I118
sI72
I124
sI73
I302
sI76
I300
sI77
I31
sI78
I156
sI80
I270
sI81
I1733
sI82
I177
sS'967'
p4
I3216
sI84
I260
sI85
I277
sI87
I2
sI88
I1874
sI89
I249
sI93
I298
sI95
I301
sI96
I397
sI97
I465
sI98
I165
sS'101162'
p5
I2704
sI100
I466
sI103
I211
sI104
I409
sI105
I391
sI107
I316
sI109
I469
sI111
I312
sI112
I129
sI114
I3467
sI116
I228
sS'299'
p6
I2116
sI120
I3
sI121
I38
sI122
I1741
sI123
I152
sI124
I86
sS'291'
p7
I3211
sI128
I431
sI129
I380
sS'200783'
p8
I2561
sI133
I208
sI134
I304
sI136
I349
sI137
I289
sI138
I584
sS'1006'
p9
I3225
sI140
I91
sS'202498'
p10
I3048
sI143
I117
sS'270'
p11
I1991
sI145
I342
sI146
I178
sI147
I66
sS'275'
p12
I2099
sS'278'
p13
I1984
sI154
I29
sI156
I202
sI157
I148
sI160
I1744
sS'1626254'
p14
I3183
sI164
I40
sI165
I273
sI166
I172
sI168
I232
sS'1005'
p15
I3228
sI170
I18
sI173
I348
sI175
I213
sI176
I603
sI177
I87
sI178
I98
sI179
I320
sI180
I356
sI181
I317
sI182
I96
sI183
I400
sI184
I235
sI185
I336
sS'2260'
p16
I2247
sI187
I187
sS'1131'
p17
I3411
sI190
I107
sI192
I157
sI193
I269
sI194
I415
sI195
I328
sS'2446'
p18
I2350
sI197
I264
sI198
I233
sI199
I1875
sI201
I125
sI202
I392
sI203
I188
sI204
I196
sS'1627742'
p19
I3141
sI208
I21
sI209
I92
sI210
I236
sI211
I327
sI212
I19
sI213
I65
sI216
I162
sS'103'
p20
I2046
sS'100'
p21
I3364
sI219
I291
sS'201946'
p22
I2824
sI221
I25
sS'201944'
p23
I2765
sI223
I417
sI224
I248
sS'2047'
p24
I2436
sI226
I242
sS'2045'
p25
I2105
sI228
I204
sS'2043'
p26
I2137
sS'2040'
p27
I2285
sS'2041'
p28
I2259
sI234
I155
sI236
I22
sS'202178'
p29
I2727
sI238
I234
sI239
I112
sI240
I318
sI241
I11
sI243
I78
sI244
I215
sI246
I288
sI247
I75
sI248
I382
sS'203967'
p30
I3163
sI251
I294
sI252
I194
sI1626154
I1592
sS'203960'
p31
I3030
sI255
I72
sS'204067'
p32
I3097
sI258
I97
sI1626155
I1701
sI262
I26
sI265
I341
sI270
I158
sI271
I224
sI273
I69
sI275
I39
sI1626158
I1633
sI278
I127
sI279
I421
sI280
I259
sI281
I35
sI283
I76
sI287
I1736
sI288
I219
sI289
I413
sI291
I393
sI292
I390
sI293
I1798
sI1626161
I1636
sI296
I209
sI297
I350
sI299
I217
sI1626162
I1588
sI302
I4
sI304
I197
sI305
I179
sI1626163
I1623
sI308
I384
sI310
I102
sS'202545'
p33
I2929
sS'2684'
p34
I2499
sI1626164
I1595
sI316
I383
sI317
I41
sS'341'
p35
I3246
sI320
I147
sS'202708'
p36
I2867
sI323
I198
sI324
I324
sI1626166
I1646
sI328
I379
sS'101121'
p37
I2531
sI330
I306
sI1626167
I1608
sS'202705'
p38
I2843
sI333
I105
sI335
I354
sI1626168
I1614
sS'203142'
p39
I2951
sI339
I49
sI340
I1912
sI341
I222
sS'203146'
p40
I2948
sI1626169
I1599
sI344
I334
sI345
I53
sS'93'
p41
I2109
sI348
I130
sI349
I64
sS'97'
p42
I3352
sI351
I1731
sI353
I164
sI355
I282
sI356
I201
sI358
I161
sI359
I225
sI361
I126
sI363
I1
sI364
I366
sI365
I60
sI1626173
I1626
sI368
I119
sI369
I44
sS'203546'
p43
I2964
sI371
I77
sS'203540'
p44
I3008
sI1626174
I1644
sS'203810'
p45
I3398
sI375
I123
sI376
I14
sS'202362'
p46
I2888
sI378
I190
sI1626175
I1654
sI380
I95
sI381
I55
sS'202365'
p47
I2800
sI383
I12
sI384
I339
sI1626176
I1659
sI386
I223
sS'2863'
p48
I2440
sI389
I297
sI390
I357
sI393
I340
sS'202148'
p49
I3394
sI397
I63
sS'203564'
p50
I3461
sI399
I252
sI400
I163
sS'200761'
p51
I2590
sI402
I1888
sI1626179
I1591
sI404
I1801
sS'202380'
p52
I2829
sI406
I396
sS'202382'
p53
I2771
sI412
I143
sS'200763'
p54
I2550
sI416
I371
sI417
I56
sI418
I45
sS'200762'
p55
I2620
sI420
I370
sI422
I290
sI423
I23
sI426
I412
sI428
I221
sI431
I182
sI432
I330
sI433
I42
sI434
I367
sI435
I140
sI436
I337
sI438
I369
sI1626185
I1611
sI440
I438
sI441
I115
sI442
I395
sS'1754'
p56
I3368
sS'1753'
p57
I2069
sI445
I303
sI446
I231
sS'1750'
p58
I3367
sI448
I109
sS'1627781'
p59
I3177
sS'1627782'
p60
I3149
sS'1627783'
p61
I3193
sI452
I218
sS'1627785'
p62
I3199
sS'1627786'
p63
I3204
sI456
I461
sI457
I361
sI458
I199
sI461
I138
sI462
I404
sI467
I374
sI468
I9
sI469
I375
sI2809
I979
sS'203496'
p64
I3027
sI1626191
I1714
sI101114
I953
sI1626192
I1637
sS'1002'
p65
I3333
sS'345'
p66
I2150
sS'689'
p67
I2196
sS'688'
p68
I2132
sS'685'
p69
I1930
sI1626196
I1628
sS'1000'
p70
I2277
sS'681'
p71
I2278
sS'680'
p72
I1973
sS'1575'
p73
I3359
sI511
I1873
sS'201601'
p74
I2674
sS'201603'
p75
I2738
sS'201602'
p76
I2687
sS'201605'
p77
I2697
sS'201604'
p78
I2682
sS'201606'
p79
I2700
sS'201609'
p80
I2693
sI1626202
I1609
sS'2741'
p81
I2455
sS'2740'
p82
I2995
sI1626204
I1621
sI2823
I916
sS'2035'
p83
I2615
sI101128
I971
sS'2742'
p84
I2428
sI101129
I973
sS'2033'
p85
I2484
sS'452'
p86
I1989
sS'2744'
p87
I2636
sS'101161'
p88
I2610
sS'2747'
p89
I2949
sI1626209
I1629
sS'2746'
p90
I3005
sS'101165'
p91
I2713
sI1626214
I1824
sS'201043'
p92
I3444
sS'201041'
p93
I2865
sS'101166'
p94
I2582
sS'378'
p95
I3263
sS'200801'
p96
I2601
sS'371'
p97
I2230
sS'375'
p98
I2091
sS'376'
p99
I2161
sS'202339'
p100
I2971
sI2839
I870
sS'203141'
p101
I2935
sS'393'
p102
I1956
sS'390'
p103
I3275
sS'397'
p104
I2058
sS'200806'
p105
I2605
sS'399'
p106
I2383
sI671
I244
sI672
I272
sI673
I7
sI674
I57
sI676
I1748
sI677
I206
sI678
I359
sI679
I176
sI680
I561
sI681
I239
sI682
I238
sI684
I307
sI685
I54
sI686
I313
sI101149
I982
sI688
I79
sI689
I74
sI690
I83
sI691
I268
sI692
I265
sI693
I258
sI694
I274
sI695
I6
sI696
I71
sI697
I67
sI698
I284
sI699
I113
sI700
I386
sI701
I33
sI702
I351
sI703
I358
sI704
I139
sI706
I283
sI707
I24
sI708
I48
sI709
I150
sI710
I168
sI711
I27
sI712
I470
sI713
I363
sI714
I144
sI715
I486
sI716
I128
sI717
I122
sI718
I120
sI719
I399
sI721
I100
sI722
I104
sS'246'
p107
I3258
sI724
I293
sI725
I381
sS'243'
p108
I2190
sI727
I192
sI728
I1872
sI729
I141
sI731
I195
sI732
I345
sI733
I227
sI734
I329
sI735
I323
sS'684'
p109
I3279
sI737
I1803
sI739
I121
sS'1626246'
p110
I3115
sS'200809'
p111
I2597
sS'203144'
p112
I2909
sI753
I174
sI754
I15
sI757
I136
sS'101181'
p113
I2530
sI2857
I915
sI760
I245
sI761
I89
sI762
I146
sI763
I13
sI764
I460
sI765
I184
sI766
I189
sS'203080'
p114
I2957
sI768
I226
sI769
I311
sI770
I243
sI771
I398
sS'203145'
p115
I2959
sI777
I230
sS'2457'
p116
I2313
sI779
I85
sI781
I295
sI782
I99
sI783
I335
sS'201959'
p117
I3174
sI785
I401
sI786
I160
sI787
I271
sI788
I278
sS'178'
p118
I2015
sS'177'
p119
I2033
sS'176'
p120
I1985
sS'201953'
p121
I2730
sS'201952'
p122
I3186
sS'173'
p123
I3209
sS'201954'
p124
I2823
sS'201957'
p125
I2769
sI200837
I1813
sS'2051'
p126
I2394
sS'2050'
p127
I2158
sS'2052'
p128
I2218
sS'2055'
p129
I2304
sI1626246
I1648
sS'2057'
p130
I2224
sS'1503'
p131
I2030
sS'2059'
p132
I2766
sS'2058'
p133
I2072
sS'201161'
p134
I2639
sS'195'
p135
I3243
sS'203124'
p136
I2921
sS'194'
p137
I3321
sS'1609'
p138
I2106
sS'203147'
p139
I3459
sS'190'
p140
I2210
sS'200778'
p141
I2952
sS'200779'
p142
I2781
sS'193'
p143
I2207
sI101177
I983
sS'200772'
p144
I2712
sS'200770'
p145
I2549
sS'200771'
p146
I2564
sS'200776'
p147
I2591
sS'200777'
p148
I2901
sS'203148'
p149
I3061
sS'271'
p150
I2008
sI101180
I944
sS'202951'
p151
I2847
sS'202952'
p152
I2965
sS'1601'
p153
I2248
sS'273'
p154
I3233
sS'1600'
p155
I2223
sS'2696'
p156
I2570
sI891
I37
sI892
I1878
sI893
I173
sI894
I88
sI895
I0
sI896
I352
sI898
I326
sI899
I263
sI900
I372
sI901
I73
sI902
I261
sI904
I257
sI905
I61
sI906
I494
sI907
I111
sI911
I314
sI912
I90
sI913
I36
sI914
I333
sI915
I114
sI916
I254
sI917
I20
sI919
I108
sI920
I145
sS'203156'
p157
I3033
sI922
I246
sI923
I266
sI924
I360
sI925
I1902
sI927
I597
sI929
I281
sI930
I1800
sI931
I229
sI932
I137
sI934
I34
sI935
I193
sI937
I169
sI938
I159
sI939
I482
sI940
I378
sI941
I1737
sS'203552'
p158
I3105
sI947
I28
sI948
I133
sI949
I321
sI950
I52
sI951
I220
sI952
I205
sI953
I110
sI954
I16
sI955
I151
sI956
I68
sI957
I262
sI958
I237
sI959
I308
sI960
I93
sI961
I43
sI962
I46
sI963
I439
sI964
I322
sI965
I251
sI966
I82
sI967
I166
sI968
I5
sI969
I247
sI970
I280
sI971
I30
sI976
I376
sI977
I255
sI978
I586
sI979
I131
sI980
I442
sI981
I748
sI982
I153
sI983
I554
sI984
I214
sI987
I365
sI988
I279
sI989
I310
sI990
I94
sI992
I1734
sI994
I292
sI997
I331
sI998
I406
sI999
I435
sI1000
I200
sI1002
I240
sI1003
I402
sI1005
I132
sI1006
I47
sS'202734'
p159
I2919
sS'107'
p160
I3346
sS'202730'
p161
I2878
sS'202731'
p162
I2864
sS'202732'
p163
I2927
sS'1762'
p164
I2420
sS'1763'
p165
I2767
sS'1760'
p166
I2155
sS'1761'
p167
I2338
sS'1766'
p168
I2588
sI1023
I420
sI1024
I1799
sI1026
I373
sI1032
I319
sI1035
I241
sI1036
I81
sI1037
I59
sI1038
I788
sS'104'
p169
I3418
sI1041
I394
sI1043
I362
sI1049
I58
sI1051
I50
sI1052
I1757
sI1055
I481
sS'692'
p170
I2127
sS'693'
p171
I2133
sS'690'
p172
I2130
sI1059
I1887
sS'696'
p173
I2063
sI1061
I440
sS'694'
p174
I3339
sI1063
I389
sI1064
I70
sI1065
I463
sS'698'
p175
I3272
sS'699'
p176
I1992
sI1068
I149
sI1070
I364
sI1073
I142
sI1074
I275
sI1075
I455
sI1077
I267
sS'763'
p177
I2165
sI1080
I8
sI1085
I539
sI1086
I285
sI1088
I562
sI1089
I475
sS'2845'
p178
I2434
sI1093
I1857
sI1096
I10
sI1099
I1856
sI1101
I1890
sI1108
I454
sI1109
I1740
sI1110
I355
sI1112
I346
sI1114
I343
sI1118
I1743
sI1120
I1739
sI1121
I305
sI1122
I286
sS'2261'
p179
I3433
sI1125
I181
sI1126
I377
sI1128
I203
sI1129
I1735
sI1131
I1732
sI1133
I405
sI1134
I353
sI1136
I207
sI1137
I1909
sI1138
I212
sS'417'
p180
I2082
sS'2264'
p181
I3386
sS'412'
p182
I3230
sS'418'
p183
I3224
sS'1381'
p184
I3284
sS'2443'
p185
I2370
sS'2440'
p186
I2477
sS'2441'
p187
I2332
sS'203943'
p188
I3063
sS'2447'
p189
I2348
sS'1627757'
p190
I3197
sS'1627755'
p191
I3167
sS'1627751'
p192
I3194
sI1627745
I1855
sI1627733
I1724
sS'1627758'
p193
I3184
sS'369'
p194
I2101
sS'364'
p195
I2043
sS'365'
p196
I2060
sS'363'
p197
I2108
sS'361'
p198
I2045
sS'2449'
p199
I2912
sS'2767'
p200
I2647
sI1627734
I1720
sS'380'
p201
I3250
sS'381'
p202
I3221
sS'383'
p203
I2204
sS'384'
p204
I2344
sS'2765'
p205
I3441
sS'386'
p206
I2007
sS'1134'
p207
I1955
sS'201142'
p208
I2629
sS'101148'
p209
I2607
sS'201146'
p210
I2646
sS'201147'
p211
I2634
sS'201144'
p212
I2622
sS'201145'
p213
I2628
sS'101143'
p214
I2543
sS'101142'
p215
I2490
sS'101141'
p216
I2572
sS'201149'
p217
I3202
sS'101146'
p218
I2696
sS'101145'
p219
I2903
sS'101144'
p220
I2518
sS'109'
p221
I1922
sS'201942'
p222
I2737
sS'258'
p223
I1982
sS'201943'
p224
I2760
sS'252'
p225
I2014
sS'2199'
p226
I2741
sS'251'
p227
I2156
sS'255'
p228
I2309
sS'2200'
p229
I2286
sS'2201'
p230
I2525
sS'2202'
p231
I2626
sS'2203'
p232
I2287
sS'2204'
p233
I2446
sS'2205'
p234
I2677
sI1627737
I1669
sS'2207'
p235
I2266
sS'2209'
p236
I2235
sS'201947'
p237
I2735
sS'201563'
p238
I2706
sS'201564'
p239
I2662
sS'201565'
p240
I3178
sS'201566'
p241
I2686
sS'201567'
p242
I2690
sS'201568'
p243
I2699
sS'105'
p244
I2211
sS'202726'
p245
I2833
sS'201964'
p246
I2897
sS'2046'
p247
I2143
sS'201966'
p248
I2776
sS'201967'
p249
I2718
sI1627738
I1828
sS'201961'
p250
I2721
sS'201962'
p251
I2758
sS'201963'
p252
I2835
sS'2420'
p253
I2473
sS'2421'
p254
I2416
sS'2422'
p255
I2339
sS'2423'
p256
I2354
sS'2424'
p257
I2367
sS'2425'
p258
I2321
sS'2427'
p259
I2407
sI1361
I32
sS'168'
p260
I3320
sI1365
I17
sS'164'
p261
I2159
sS'2042'
p262
I2107
sS'166'
p263
I1919
sS'160'
p264
I3423
sS'202729'
p265
I2857
sI1380
I368
sI1381
I299
sS'905'
p266
I2056
sS'203948'
p267
I3065
sS'203940'
p268
I3021
sS'2876'
p269
I2573
sS'203944'
p270
I3083
sS'2734'
p271
I2681
sS'2735'
p272
I2790
sS'2736'
p273
I3057
sS'2737'
p274
I2465
sS'2730'
p275
I2478
sS'2731'
p276
I2460
sS'2732'
p277
I2768
sS'2733'
p278
I2732
sS'2738'
p279
I2451
sS'200769'
p280
I2658
sI1425
I332
sI1429
I1911
sI1432
I1738
sS'200760'
p281
I2568
sI1434
I647
sS'2049'
p282
I2294
sS'200765'
p283
I3104
sS'200764'
p284
I2579
sS'200767'
p285
I2602
sS'200766'
p286
I2600
sS'203492'
p287
I2968
sS'203493'
p288
I3135
sI1442
I671
sS'203491'
p289
I3007
sI1444
I472
sS'203497'
p290
I2963
sS'203495'
p291
I3460
sS'203498'
p292
I2977
sS'203499'
p293
I3051
sS'202709'
p294
I2894
sS'1626195'
p295
I3179
sI1472
I84
sI1474
I256
sS'1627848'
p296
I3165
sI1477
I437
sI1478
I154
sI1479
I1900
sI1489
I101
sS'203128'
p297
I3029
sS'203129'
p298
I3010
sI1627747
I1662
sI1495
I459
sI1496
I427
sI1497
I423
sI1498
I451
sI1499
I448
sI1500
I436
sI1501
I407
sI1502
I462
sI1503
I422
sI1504
I447
sI1505
I474
sI1506
I414
sI1507
I444
sI1508
I477
sI1509
I457
sI1510
I443
sI1511
I605
sI1512
I480
sI1513
I428
sI1514
I849
sI1515
I408
sI1516
I467
sI1517
I550
sI1518
I479
sI1519
I426
sI1520
I452
sI1521
I468
sI1522
I512
sI1525
I429
sI1526
I1881
sI1527
I456
sI1528
I464
sI1529
I410
sI1530
I478
sI1531
I640
sI1532
I434
sI1533
I471
sI1535
I432
sI1536
I649
sI1538
I441
sI1539
I411
sI1540
I446
sI1541
I424
sI1542
I707
sI1544
I403
sI1545
I418
sI1627735
I1827
sI1548
I621
sS'1554'
p299
I3382
sI1627736
I1700
sI1554
I1810
sS'204065'
p300
I3015
sS'201175'
p301
I2889
sI1559
I543
sI1562
I544
sI1563
I433
sI1564
I484
sI1565
I473
sI1569
I476
sI1627739
I1719
sI1572
I797
sS'204060'
p302
I3044
sI1575
I483
sI1576
I453
sI1627740
I1711
sI1578
I1910
sI1627741
I1715
sS'202723'
p303
I2856
sI1585
I596
sS'202721'
p304
I2834
sS'202720'
p305
I2884
sI1627742
I1725
sS'202725'
p306
I2892
sI1591
I1892
sI1593
I505
sI1594
I458
sI1627743
I1713
sI1600
I513
sI1601
I516
sI1607
I583
sI1609
I638
sI1612
I425
sI1627746
I1696
sI1619
I450
sI1627748
I1672
sI1630
I612
sI1627749
I1718
sI1627750
I1698
sS'1559'
p307
I2630
sS'57'
p308
I2029
sI1627751
I1679
sS'51'
p309
I2166
sS'53'
p310
I2087
sS'52'
p311
I3326
sI1627752
I1656
sI1627754
I1693
sI1666
I1802
sI1667
I430
sI1627756
I1665
sI1677
I449
sI1627757
I1690
sI1680
I445
sS'1906'
p312
I3373
sI1682
I1742
sI1683
I636
sI1627758
I1703
sI1627759
I1661
sS'201627'
p313
I2812
sS'304'
p314
I2016
sI202353
I1789
sS'2693'
p315
I2414
sI1709
I581
sI1710
I506
sI1711
I556
sI1712
I600
sI1713
I498
sI1714
I493
sI1715
I585
sI1716
I510
sI1717
I528
sI1718
I495
sI1719
I590
sI1720
I501
sI1721
I558
sI1722
I525
sI1723
I500
sI1724
I527
sI1725
I549
sI1726
I573
sI1727
I520
sI1728
I488
sI1729
I504
sI1730
I524
sI1731
I602
sI1732
I507
sI1733
I492
sI1734
I579
sI1735
I577
sI1736
I514
sI1737
I511
sI1738
I796
sI1739
I574
sI1740
I575
sI1741
I576
sI1742
I530
sI1743
I593
sI1744
I706
sI1745
I529
sI1746
I3463
sI1747
I572
sI1748
I502
sI1749
I526
sI1750
I522
sI1751
I485
sI1752
I499
sI1753
I518
sI1754
I1745
sI1755
I1880
sI1756
I490
sI1757
I515
sI1760
I568
sI1761
I567
sI1762
I764
sI1763
I560
sI1764
I508
sI1765
I1756
sI1766
I755
sS'1627748'
p316
I3157
sS'1627749'
p317
I3171
sI1627773
I1689
sI1627774
I1675
sI1800
I496
sI1801
I1879
sI1802
I503
sI1817
I1858
sS'204456'
p318
I3128
sI1820
I1891
sI1823
I509
sI1824
I1746
sS'201150'
p319
I2612
sS'201153'
p320
I2821
sS'201152'
p321
I2649
sS'201155'
p322
I2643
sI1829
I704
sI665382
I1495
sI1831
I497
sS'201159'
p323
I2623
sS'201158'
p324
I2739
sI1838
I523
sI1627784
I1852
sI1844
I1882
sI1845
I1805
sI1627785
I1663
sI1852
I489
sI1853
I564
sI1855
I3462
sI1858
I1747
sI1627755
I1671
sS'101194'
p325
I2539
sI1861
I521
sI1863
I491
sI1864
I1752
sI1868
I1914
sI1869
I517
sI1871
I519
sI1872
I487
sS'228'
p326
I2023
sS'226'
p327
I3315
sI1882
I570
sI1883
I553
sI1884
I542
sI1885
I582
sI1886
I535
sI1887
I548
sI1888
I546
sI1889
I536
sI1890
I555
sI1891
I531
sI1892
I616
sI1893
I1751
sI1894
I563
sI1895
I551
sI1897
I591
sI1898
I533
sI1899
I557
sI1900
I587
sI1901
I532
sI1902
I534
sI1903
I552
sI1904
I599
sI1905
I732
sI1906
I632
sI1907
I578
sI1908
I540
sI1909
I588
sI1910
I664
sI1911
I598
sS'201577'
p328
I2694
sI1913
I571
sI1914
I559
sI1915
I589
sI1916
I545
sI1917
I620
sI1918
I569
sI1919
I547
sI1920
I594
sI1921
I736
sI1922
I852
sS'201970'
p329
I2750
sI1924
I633
sS'154'
p330
I3271
sS'201975'
p331
I2749
sS'156'
p332
I1933
sI1928
I538
sI1930
I537
sS'2430'
p333
I2471
sS'2437'
p334
I2406
sS'2436'
p335
I2343
sI1934
I566
sS'2434'
p336
I2624
sI1937
I580
sI1938
I785
sI1942
I565
sI1943
I1749
sI1944
I541
sI1950
I657
sI1952
I697
sI1953
I1807
sI1954
I1750
sS'203954'
p337
I3198
sI1956
I663
sS'203952'
p338
I3020
sS'203950'
p339
I3079
sI1960
I604
sS'238'
p340
I2185
sI1965
I1806
sI1967
I601
sS'202701'
p341
I2850
sI1975
I595
sS'2501'
p342
I2323
sI1983
I668
sS'200754'
p343
I2553
sI1985
I691
sS'200756'
p344
I2826
sS'2724'
p345
I2369
sS'200750'
p346
I2563
sS'200751'
p347
I2560
sS'200752'
p348
I2557
sS'200753'
p349
I2756
sS'239'
p350
I1949
sS'203382'
p351
I2895
sS'203530'
p352
I3205
sS'204054'
p353
I3073
sS'200758'
p354
I2577
sS'200759'
p355
I2672
sS'202704'
p356
I2846
sI2000
I592
sS'203481'
p357
I3086
sS'203480'
p358
I3400
sS'203485'
p359
I2998
sS'1802'
p360
I2279
sS'203487'
p361
I2996
sS'98'
p362
I1944
sS'203489'
p363
I2981
sI1627815
I1707
sI2030
I648
sI2031
I626
sI2032
I655
sI2033
I628
sI2034
I651
sI2035
I609
sI2036
I615
sI2037
I627
sI2038
I623
sI2039
I662
sI2040
I622
sI2041
I714
sI2042
I606
sI2043
I613
sI2044
I723
sI2045
I637
sI2046
I644
sI2047
I656
sI2048
I611
sI2049
I696
sI2050
I624
sI2051
I688
sI2052
I634
sI2053
I629
sI2054
I653
sI2055
I754
sI2056
I675
sI2057
I661
sI2058
I625
sI2059
I619
sI2060
I765
sI2061
I617
sI2062
I630
sI2063
I686
sI2064
I646
sI2065
I608
sI2066
I650
sI2067
I652
sI2068
I659
sI2069
I610
sI2071
I645
sI2072
I660
sI2073
I614
sI2074
I639
sS'203135'
p364
I2896
sI2078
I848
sI2079
I908
sI2080
I794
sI2081
I803
sI2082
I1893
sI2084
I643
sS'428'
p365
I2010
sS'1942'
p366
I3375
sS'95'
p367
I2262
sI2091
I654
sI2092
I641
sS'1526'
p368
I3422
sS'1944'
p369
I2180
sI2098
I711
sI1627763
I1673
sI2101
I642
sI2106
I658
sS'96'
p370
I1986
sI2109
I701
sI2121
I1809
sS'2853'
p371
I2596
sI2123
I1808
sI2124
I677
sS'2857'
p372
I3437
sS'203545'
p373
I2979
sI2128
I607
sI2130
I635
sS'1495'
p374
I2147
sS'1496'
p375
I2001
sS'1497'
p376
I2083
sS'1498'
p377
I2153
sI2137
I1026
sS'423'
p378
I1970
sI2143
I631
sS'422'
p379
I2152
sS'1709'
p380
I2380
sS'201196'
p381
I2673
sS'426'
p382
I3310
sI2173
I618
sS'1128'
p383
I3299
sS'1129'
p384
I3415
sS'202066'
p385
I2724
sS'1122'
p386
I3260
sS'202068'
p387
I2759
sS'1125'
p388
I3261
sS'1126'
p389
I3300
sI2198
I715
sI2199
I682
sI2200
I700
sI2201
I683
sI2202
I693
sI2203
I702
sI2204
I719
sI2205
I730
sI2206
I673
sI2207
I685
sI2208
I665
sI2209
I705
sI2210
I678
sI2211
I694
sI2212
I667
sI2213
I670
sI2214
I669
sI2215
I679
sI2216
I775
sI2217
I713
sI2218
I731
sI2219
I718
sI2220
I681
sI2221
I823
sI2222
I676
sI2223
I725
sI2224
I674
sI2225
I729
sI2226
I703
sS'200827'
p390
I2650
sI2228
I687
sI2229
I712
sI2230
I717
sS'695'
p391
I2181
sI2237
I3468
sI2238
I724
sI2239
I684
sI2240
I692
sI2241
I666
sI2242
I720
sI2243
I680
sI2244
I699
sI2245
I726
sI2246
I749
sI2248
I708
sI2249
I728
sI2250
I727
sS'203143'
p392
I2950
sI2253
I790
sI2254
I716
sI2256
I795
sI2257
I710
sS'203932'
p393
I3069
sI2260
I798
sI2261
I709
sI2264
I698
sS'202361'
p394
I2804
sS'1626158'
p395
I3127
sS'202360'
p396
I2805
sS'203548'
p397
I3013
sS'202366'
p398
I2877
sS'202385'
p399
I2869
sI2294
I733
sS'436'
p400
I1953
sS'349'
p401
I2059
sS'435'
p402
I2301
sS'432'
p403
I2021
sS'1626159'
p404
I3094
sS'431'
p405
I2221
sI2306
I689
sI1627770
I1728
sI2321
I779
sS'1627771'
p406
I3406
sI1627771
I1712
sS'898'
p407
I3241
sS'2866'
p408
I2450
sS'1627777'
p409
I3187
sI2343
I1811
sS'101153'
p410
I2552
sI2347
I734
sI2349
I672
sI2351
I721
sI2352
I695
sI2357
I722
sI2365
I771
sI2366
I784
sI2367
I1760
sI2369
I1753
sI2370
I690
sS'1626173'
p411
I3113
sS'202386'
p412
I2811
sS'1627746'
p413
I3143
sS'1627747'
p414
I3201
sS'1626185'
p415
I3101
sS'1627740'
p416
I3188
sS'1626181'
p417
I3131
sI2397
I787
sI2398
I757
sI2399
I777
sI2400
I737
sI2401
I768
sI2402
I766
sI2403
I767
sI2404
I763
sI2405
I792
sI2406
I782
sI2407
I791
sI2408
I762
sI2409
I760
sI2410
I781
sI2411
I789
sI2412
I778
sI2413
I739
sI2414
I895
sI2415
I745
sI2416
I751
sI2417
I776
sI2418
I793
sI2419
I750
sI2420
I907
sI2421
I743
sI2422
I747
sI2423
I753
sI2424
I735
sI2425
I746
sI2427
I758
sI2428
I770
sI2429
I759
sI2430
I740
sI2431
I1227
sI2432
I1831
sS'201187'
p418
I2618
sI2434
I1085
sI2435
I889
sI2436
I774
sI2437
I756
sS'201180'
p419
I2692
sS'201181'
p420
I2651
sI2440
I841
sI2441
I761
sI2442
I1903
sI2443
I850
sS'101183'
p421
I2536
sS'101182'
p422
I2541
sI2446
I783
sI2447
I742
sI2449
I1099
sI2450
I1861
sI2451
I1812
sI2452
I786
sI2453
I772
sI2454
I769
sI2456
I855
sI2457
I752
sS'236'
p423
I2216
sI2462
I1832
sI2466
I820
sI2469
I738
sI2470
I741
sI2471
I744
sS'2226'
p424
I2289
sS'202389'
p425
I2803
sS'2224'
p426
I2280
sS'2225'
p427
I2261
sS'2222'
p428
I2233
sS'2223'
p429
I2296
sS'2220'
p430
I2254
sS'2221'
p431
I2377
sS'203963'
p432
I3078
sI2484
I847
sI2486
I897
sI2492
I1754
sS'146'
p433
I2139
sS'147'
p434
I2055
sI2499
I856
sI2501
I773
sS'201988'
p435
I2753
sS'201986'
p436
I2893
sS'201985'
p437
I2745
sS'201980'
p438
I2780
sS'2469'
p439
I2357
sS'203922'
p440
I3032
sS'203921'
p441
I3050
sS'203926'
p442
I3176
sS'203924'
p443
I3034
sS'203925'
p444
I3200
sS'2080'
p445
I2334
sS'2081'
p446
I3383
sI2541
I780
sS'203961'
p447
I3081
sI2544
I832
sI2545
I838
sI2546
I851
sI2547
I831
sI2548
I815
sI2549
I840
sI2550
I807
sI2551
I842
sI2552
I821
sI2553
I826
sI2554
I854
sI2555
I911
sI2556
I801
sI2557
I830
sI2558
I813
sI2559
I818
sI2560
I845
sI2561
I819
sI2562
I822
sI2563
I905
sI2564
I800
sI2565
I804
sI2566
I843
sI2567
I837
sI2568
I863
sI2569
I839
sI2570
I805
sI2571
I844
sI2572
I828
sI2573
I846
sI2574
I833
sI2575
I836
sS'1627741'
p448
I3144
sI2580
I799
sI2581
I825
sI2582
I1860
sI2583
I3464
sI2584
I809
sI2585
I814
sI2586
I811
sI2588
I874
sI2590
I824
sI2591
I951
sI2592
I903
sI2594
I810
sI2599
I802
sI2601
I1065
sI2602
I1758
sI2604
I817
sI2605
I829
sS'2406'
p449
I2349
sS'2407'
p450
I2363
sS'2404'
p451
I2495
sS'2405'
p452
I2316
sS'2403'
p453
I2910
sS'2400'
p454
I2358
sS'2401'
p455
I2488
sS'200792'
p456
I2559
sI2617
I816
sS'931'
p457
I2222
sS'937'
p458
I1977
sS'935'
p459
I2018
sS'934'
p460
I2179
sI2624
I879
sS'203457'
p461
I3028
sS'203106'
p462
I2932
sS'203107'
p463
I3154
sS'203100'
p464
I2944
sS'203101'
p465
I2955
sS'203102'
p466
I2953
sS'203103'
p467
I2928
sI2632
I1883
sS'203962'
p468
I3093
sI2637
I1905
sS'203458'
p469
I2972
sI2639
I812
sS'1956'
p470
I2229
sS'1952'
p471
I2232
sI2648
I808
sI2657
I922
sI2667
I835
sI2668
I827
sI2669
I806
sI1627782
I1853
sS'1752'
p472
I2205
sI2673
I834
sS'203521'
p473
I3160
sS'1751'
p474
I1958
sI2679
I857
sS'202388'
p475
I2991
sI2682
I919
sI2684
I991
sS'203585'
p476
I3190
sI2688
I1904
sI2693
I853
sI2694
I947
sI2696
I1003
sS'1820'
p477
I3355
sS'203210'
p478
I3056
sS'1489'
p479
I3304
sS'1713'
p480
I2025
sS'1712'
p481
I2459
sS'1711'
p482
I2616
sS'1710'
p483
I1932
sI2724
I1755
sS'1716'
p484
I2327
sS'1715'
p485
I1945
sS'1714'
p486
I2275
sS'202724'
p487
I3396
sI2730
I886
sI2731
I871
sI2732
I868
sI2733
I878
sI2734
I914
sI2735
I859
sI2736
I891
sI2737
I875
sI2738
I862
sI2739
I913
sI2740
I892
sI2741
I921
sI2742
I899
sI2743
I894
sI2744
I884
sI2745
I893
sI2746
I858
sI2747
I876
sI2748
I928
sI2749
I887
sI2750
I1759
sI2751
I898
sI2752
I960
sI2753
I882
sI2754
I881
sI2755
I900
sI2756
I901
sI2757
I890
sI2758
I904
sI2760
I910
sI2761
I877
sI2762
I885
sI2763
I880
sI2764
I860
sI2765
I1865
sI2766
I906
sI2767
I861
sI2768
I867
sS'2419'
p488
I2336
sI2770
I883
sI2772
I864
sI2773
I1833
sI2774
I872
sI2775
I1761
sI2776
I873
sI2779
I1043
sI2782
I1059
sS'201154'
p489
I2731
sI2784
I896
sI2788
I948
sS'201157'
p490
I2641
sI1627786
I1795
sS'201156'
p491
I2619
sI2798
I917
sS'2065'
p492
I2113
sI2800
I902
sI101106
I930
sI101107
I923
sI2804
I866
sI101109
I931
sI101110
I988
sI101111
I962
sI101112
I955
sI101113
I958
sI2810
I1122
sI101115
I967
sS'1003'
p493
I3427
sI101117
I994
sI101118
I1066
sI101119
I937
sI101120
I941
sI101121
I964
sI101122
I943
sI101123
I1007
sI101124
I942
sI101125
I981
sI101126
I957
sI101127
I987
sI2824
I1064
sI2825
I912
sI101130
I965
sI101131
I952
sI101132
I980
sI101133
I1197
sI101134
I927
sI101135
I956
sI101136
I945
sI101137
I993
sI101138
I978
sI101139
I954
sI101141
I1002
sI101142
I968
sI101143
I936
sI101144
I970
sI101145
I959
sI101146
I1141
sI101147
I997
sI101148
I1763
sI2845
I909
sI101150
I950
sI101152
I1034
sI101153
I1062
sI101154
I939
sI101155
I989
sI101156
I985
sI2853
I929
sI101158
I975
sI101159
I972
sI101160
I992
sI101161
I1114
sI101162
I1102
sS'203114'
p494
I2941
sI101165
I966
sI101166
I1053
sI2863
I920
sI2866
I865
sI2867
I1074
sI2873
I938
sI101178
I976
sI101179
I961
sI2876
I869
sI101181
I963
sI101182
I940
sI101183
I949
sI101184
I1884
sI101185
I946
sI101187
I932
sI101188
I934
sI101189
I995
sI101190
I1835
sI101194
I1170
sI2891
I888
sI101198
I1155
sI101204
I1116
sI1626153
I1594
sI101207
I933
sI101209
I969
sI101211
I926
sI101212
I924
sI101213
I986
sI101214
I1182
sI101215
I1836
sI101219
I925
sS'15'
p495
I2555
sI101223
I998
sS'1627762'
p496
I3196
sS'1627763'
p497
I3159
sI101230
I1834
sI101232
I1765
sI101235
I1049
sI101236
I1042
sI101238
I996
sI101247
I1894
sI101249
I974
sI101252
I977
sI101261
I984
sS'1626199'
p498
I3134
sS'1626192'
p499
I3124
sS'1626191'
p500
I3110
sS'1626196'
p501
I3095
sS'101195'
p502
I2565
sS'201178'
p503
I2653
sS'201171'
p504
I2714
sS'201177'
p505
I2617
sS'201176'
p506
I2627
sS'1442'
p507
I2270
sI1626156
I1619
sS'101198'
p508
I2683
sS'201'
p509
I2088
sS'203'
p510
I3262
sS'202'
p511
I1988
sS'204'
p512
I2017
sS'201949'
p513
I2871
sS'209'
p514
I2032
sS'208'
p515
I2119
sS'1627789'
p516
I3162
sS'201199'
p517
I2632
sI1626157
I1649
sS'1572'
p518
I2355
sS'2239'
p519
I2379
sS'2238'
p520
I2290
sS'686'
p521
I2395
sS'200829'
p522
I3449
sS'200826'
p523
I2855
sS'2230'
p524
I2432
sS'200822'
p525
I3389
sS'200821'
p526
I2707
sS'682'
p527
I2421
sS'101261'
p528
I2538
sI1626159
I1627
sS'201991'
p529
I2755
sS'2091'
p530
I2090
sS'2092'
p531
I2220
sS'2098'
p532
I2074
sS'203930'
p533
I3039
sS'203933'
p534
I3074
sS'224'
p535
I2208
sS'203937'
p536
I3080
sS'2667'
p537
I3435
sS'223'
p538
I3325
sS'1626174'
p539
I3137
sS'201207'
p540
I2621
sS'1626170'
p541
I3106
sS'221'
p542
I2276
sS'201203'
p543
I3392
sS'201202'
p544
I2638
sS'1626178'
p545
I3139
sS'201208'
p546
I3450
sS'2213'
p547
I2273
sS'201973'
p548
I2762
sS'2212'
p549
I2292
sS'2211'
p550
I2584
sS'204037'
p551
I3052
sS'2210'
p552
I2251
sS'2217'
p553
I2258
sS'203186'
p554
I3109
sS'2216'
p555
I2265
sS'203187'
p556
I2945
sS'1829'
p557
I3387
sS'2215'
p558
I2252
sS'2214'
p559
I2303
sS'1627737'
p560
I3166
sS'2411'
p561
I2505
sS'2410'
p562
I2346
sS'2413'
p563
I2328
sS'2412'
p564
I2502
sS'2143'
p565
I2197
sS'2414'
p566
I2417
sS'2417'
p567
I2315
sS'2416'
p568
I2312
sS'920'
p569
I1917
sS'2418'
p570
I2317
sS'922'
p571
I2175
sS'923'
p572
I2094
sS'924'
p573
I2362
sS'2219'
p574
I2291
sS'927'
p575
I1924
sS'203113'
p576
I3054
sS'203112'
p577
I2946
sS'203111'
p578
I2916
sS'2218'
p579
I2324
sS'203117'
p580
I2923
sS'203116'
p581
I2936
sS'203115'
p582
I2899
sS'101180'
p583
I2523
sS'203119'
p584
I2939
sS'1921'
p585
I2359
sS'1922'
p586
I2592
sS'1924'
p587
I2202
sS'1928'
p588
I2189
sS'202862'
p589
I2845
sS'3'
p590
I2163
sS'101128'
p591
I2503
sS'1138'
p592
I3380
sS'201579'
p593
I2708
sS'201578'
p594
I2688
sS'201576'
p595
I2796
sS'201575'
p596
I2709
sS'203200'
p597
I3180
sS'785'
p598
I3313
sS'786'
p599
I3214
sS'201574'
p600
I2670
sS'781'
p601
I2071
sS'782'
p602
I1957
sS'1729'
p603
I2509
sS'1726'
p604
I3378
sS'1727'
p605
I1975
sS'1724'
p606
I2274
sS'1725'
p607
I2084
sS'1722'
p608
I1931
sS'1723'
p609
I2293
sS'1720'
p610
I1967
sS'1721'
p611
I2160
sS'101123'
p612
I2637
sS'201570'
p613
I2675
sS'2415'
p614
I2322
sS'201972'
p615
I2717
sS'202087'
p616
I2734
sS'202082'
p617
I2810
sS'201971'
p618
I2722
sS'202081'
p619
I2831
sS'61'
p620
I3257
sS'63'
p621
I1954
sS'64'
p622
I2061
sS'67'
p623
I3327
sS'201977'
p624
I2773
sS'157'
p625
I3316
sS'406'
p626
I1918
sS'201974'
p627
I2744
sS'1585'
p628
I3377
sS'203526'
p629
I3087
sS'1032'
p630
I2115
sS'1036'
p631
I3227
sS'2431'
p632
I2832
sS'1035'
p633
I2154
sS'201978'
p634
I2907
sS'400'
p635
I3212
sI1626170
I1641
sS'2435'
p636
I2481
sS'1728'
p637
I3381
sS'2891'
p638
I3438
sS'201979'
p639
I2966
sI1626171
I1597
sS'1108'
p640
I3286
sS'1109'
p641
I3296
sS'788'
p642
I2031
sI1626172
I1622
sI200081
I1083
sS'203909'
p643
I3402
sS'1718'
p644
I2992
sS'202738'
p645
I2836
sS'202345'
p646
I2961
sS'1576'
p647
I3354
sS'202344'
p648
I2827
sS'203957'
p649
I3043
sS'202347'
p650
I2848
sS'2137'
p651
I2411
sS'203955'
p652
I3047
sS'202348'
p653
I2860
sS'203953'
p654
I3112
sS'202363'
p655
I3395
sS'216'
p656
I1925
sS'212'
p657
I3219
sS'213'
p658
I2027
sS'210'
p659
I2079
sS'211'
p660
I3305
sS'219'
p661
I2089
sS'1627362'
p662
I3170
sS'203958'
p663
I3401
sS'200978'
p664
I3451
sS'438'
p665
I3295
sS'200839'
p666
I3399
sS'200835'
p667
I2594
sI1626178
I1651
sS'201880'
p668
I2908
sS'202083'
p669
I2725
sS'2753'
p670
I2645
sS'2550'
p671
I2825
sS'2551'
p672
I2425
sS'2552'
p673
I2419
sS'2553'
p674
I2390
sS'2554'
p675
I2710
sS'2555'
p676
I2441
sS'2556'
p677
I2508
sS'2557'
p678
I2375
sS'2558'
p679
I2386
sS'2559'
p680
I3436
sS'203906'
p681
I3075
sI1627816
I1870
sS'203900'
p682
I3035
sS'203901'
p683
I3068
sS'203902'
p684
I3175
sS'203903'
p685
I3019
sS'1626143'
p686
I3126
sS'201234'
p687
I2770
sS'201235'
p688
I2655
sS'1626147'
p689
I3164
sS'1626146'
p690
I3138
sS'201238'
p691
I3391
sS'1626148'
p692
I3111
sS'2399'
p693
I2585
sS'2648'
p694
I2468
sS'200755'
p695
I2598
sS'2770'
p696
I2512
sS'2772'
p697
I2449
sS'2774'
p698
I2461
sS'2775'
p699
I2429
sS'2776'
p700
I2532
sS'200757'
p701
I2685
sI2852
I918
sI1627762
I1726
sS'1858'
p702
I3372
sS'198'
p703
I2146
sS'1853'
p704
I2212
sS'1855'
p705
I3371
sS'919'
p706
I2111
sS'915'
p707
I2042
sS'914'
p708
I3324
sS'917'
p709
I3220
sS'916'
p710
I2067
sS'911'
p711
I2121
sS'913'
p712
I2097
sS'912'
p713
I3253
sS'2604'
p714
I2372
sS'2605'
p715
I2604
sS'203473'
p716
I2986
sS'203474'
p717
I2980
sS'2601'
p718
I3446
sS'2602'
p719
I2423
sS'203477'
p720
I3031
sS'203479'
p721
I3004
sS'201965'
p722
I2719
sS'1934'
p723
I2194
sS'1938'
p724
I2329
sS'202874'
p725
I3456
sS'433'
p726
I3223
sS'204001'
p727
I3107
sI1626184
I1709
sS'1739'
p728
I1990
sS'1738'
p729
I2239
sS'1731'
p730
I2049
sS'1730'
p731
I2337
sS'1733'
p732
I2170
sS'1732'
p733
I1934
sS'1735'
p734
I1998
sS'1734'
p735
I2050
sS'1737'
p736
I2186
sS'732'
p737
I3255
sS'753'
p738
I2347
sS'757'
p739
I1980
sS'754'
p740
I2299
sS'202091'
p741
I2973
sS'1594'
p742
I2264
sS'1593'
p743
I3362
sS'203484'
p744
I3006
sS'1024'
p745
I3350
sS'1026'
p746
I3416
sS'1023'
p747
I2000
sS'1800'
p748
I2168
sS'1037'
p749
I3222
sI1626188
I1686
sS'1627815'
p750
I3153
sS'1627817'
p751
I3409
sS'1627812'
p752
I3207
sS'997'
p753
I3239
sS'1110'
p754
I3210
sS'1444'
p755
I1950
sI1627827
I1683
sS'1118'
p756
I3421
sS'467'
p757
I2040
sS'101158'
p758
I2589
sS'101159'
p759
I2533
sS'101154'
p760
I2583
sS'101155'
p761
I2635
sS'101156'
p762
I2537
sS'101150'
p763
I2548
sS'101152'
p764
I2575
sS'2306'
p765
I2302
sI1626143
I1631
sI1626144
I1606
sI1626145
I1650
sI1626146
I1643
sI1626147
I1634
sI1626148
I1617
sI1626149
I1604
sI1626150
I1676
sI1626151
I1624
sI200745
I1052
sI200746
I1027
sI200747
I1021
sI200748
I1018
sI200749
I1000
sI200750
I1028
sI200751
I1032
sI200752
I1035
sI200753
I1109
sI200754
I1063
sI200755
I1054
sI200756
I1039
sI200757
I1019
sI200758
I1048
sI200759
I1040
sI200760
I1012
sI200761
I999
sI200762
I1096
sI200763
I1031
sI200764
I1037
sI200765
I1009
sI200766
I1016
sI200767
I1015
sI200768
I1087
sI200769
I1058
sI200770
I1050
sI200771
I1029
sI200772
I1041
sI1626181
I1593
sI1626183
I1790
sI200776
I1038
sI200777
I1398
sI200778
I1376
sI200779
I1057
sI200780
I1001
sI200781
I1045
sI200782
I1067
sI200783
I1033
sI200784
I1014
sI200785
I1839
sI200786
I1004
sI1626195
I1704
sI200788
I1076
sI200789
I1006
sI200790
I1125
sI1626199
I1600
sI200792
I1060
sI200793
I1047
sI200794
I1046
sI1626203
I1660
sI200796
I1010
sI200797
I1022
sI200798
I1161
sI200799
I1841
sI200801
I1017
sI1626210
I1596
sI200806
I1005
sI200807
I1055
sI200809
I1023
sI200810
I1008
sI200811
I1013
sI200814
I1036
sI200816
I1051
sI200817
I1289
sI200818
I1030
sI200821
I1061
sI200822
I1025
sI200823
I1837
sI200826
I1024
sI200827
I1126
sI200829
I1068
sI1626242
I1642
sI200835
I1020
sS'199'
p766
I3309
sI1626245
I1598
sI200838
I1011
sI200839
I1100
sI200840
I1764
sI200841
I1056
sS'197'
p767
I2009
sI1626251
I1898
sI1626253
I1607
sI1626254
I1705
sS'192'
p768
I1938
sI200848
I1762
sI1626257
I1687
sI1626262
I1788
sS'203130'
p769
I2956
sI1626266
I3466
sS'203133'
p770
I2976
sI1626273
I1620
sS'203919'
p771
I3055
sS'203918'
p772
I3042
sS'2547'
p773
I2405
sS'2546'
p774
I2876
sS'2545'
p775
I2422
sS'2544'
p776
I2797
sS'203913'
p777
I3018
sS'203912'
p778
I3189
sS'2549'
p779
I2960
sS'2548'
p780
I2402
sS'203917'
p781
I3014
sS'203915'
p782
I3053
sS'201229'
p783
I2793
sS'201228'
p784
I2934
sS'1626156'
p785
I3089
sS'1626157'
p786
I3118
sS'1626153'
p787
I3132
sS'1626150'
p788
I3192
sS'1626151'
p789
I3122
sS'200798'
p790
I2656
sS'2768'
p791
I2698
sS'2762'
p792
I3439
sS'2761'
p793
I2485
sS'200793'
p794
I2578
sS'200794'
p795
I2576
sS'2766'
p796
I2443
sS'200796'
p797
I3393
sS'200797'
p798
I2595
sI200922
I1906
sS'201167'
p799
I2642
sS'902'
p800
I2404
sS'900'
p801
I3244
sS'901'
p802
I2183
sS'906'
p803
I3308
sS'907'
p804
I3343
sS'904'
p805
I2065
sS'244'
p806
I2028
sS'420'
p807
I3268
sS'1847'
p808
I3369
sS'247'
p809
I3226
sS'241'
p810
I3307
sS'240'
p811
I3322
sS'2617'
p812
I2403
sS'203469'
p813
I3001
sS'203468'
p814
I2970
sI200970
I1814
sI200971
I1862
sS'203463'
p815
I2967
sS'203462'
p816
I2974
sS'203461'
p817
I3025
sS'203460'
p818
I2989
sI200978
I1044
sS'1908'
p819
I2192
sS'1909'
p820
I2013
sI200984
I1815
sS'1907'
p821
I2295
sS'1904'
p822
I1927
sS'1905'
p823
I2246
sS'1902'
p824
I2171
sS'1903'
p825
I2341
sS'1900'
p826
I2024
sS'1901'
p827
I2445
sS'248'
p828
I2184
sS'204014'
p829
I3077
sS'1626242'
p830
I3403
sI201041
I1311
sI201043
I1080
sS'201189'
p831
I2872
sS'200749'
p832
I2613
sS'2575'
p833
I2364
sS'203315'
p834
I2984
sS'202220'
p835
I2791
sS'202227'
p836
I2868
sS'1051'
p837
I2077
sS'1052'
p838
I2418
sS'1055'
p839
I3357
sI201141
I1240
sI201142
I1120
sI201143
I1069
sI201144
I1084
sI201145
I1119
sI201146
I1091
sI201147
I1123
sI201148
I1106
sI201149
I1088
sI201150
I1110
sI201151
I1070
sI201152
I1081
sI201153
I1105
sI201154
I1097
sI201155
I1113
sI201156
I1094
sI201157
I1093
sI201158
I1108
sI201159
I1086
sI201160
I1082
sI201161
I1073
sI201162
I1103
sI201163
I1079
sI201164
I1153
sI201165
I1770
sI201166
I1101
sI201167
I1112
sI201168
I1252
sI201169
I1127
sI201171
I1115
sI201172
I1078
sI201173
I1838
sI201174
I1098
sI201175
I1077
sI201176
I1104
sI201177
I1138
sI201178
I1121
sI201180
I1817
sI201181
I1124
sI201182
I1901
sI201183
I1840
sI201186
I1072
sI201187
I1095
sI201188
I1131
sI201189
I1089
sI201191
I1772
sI201192
I1118
sI201193
I1090
sI201196
I1092
sI201199
I1117
sS'1472'
p840
I3356
sI201202
I1075
sI201203
I1248
sI201204
I1767
sS'1477'
p841
I2206
sI201207
I1111
sI201208
I1816
sS'201151'
p842
I2754
sS'201571'
p843
I2676
sI201228
I1107
sI201229
I1204
sS'1627735'
p844
I3150
sS'1627734'
p845
I3172
sI201234
I1163
sI201235
I1768
sI201238
I1071
sS'1499'
p846
I2479
sI201242
I1128
sS'1627739'
p847
I3140
sS'1627738'
p848
I3151
sS'26'
p849
I2039
sS'21'
p850
I1987
sS'22'
p851
I2057
sS'28'
p852
I2053
sS'29'
p853
I2006
sS'2454'
p854
I2558
sS'203078'
p855
I2911
sI201274
I1301
sS'2456'
p856
I2360
sI201286
I1864
sI201291
I1360
sS'1817'
p857
I3426
sS'203079'
p858
I3040
sS'201573'
p859
I2668
sI201336
I1766
sS'1872'
p860
I3365
sS'200817'
p861
I2775
sS'200816'
p862
I2580
sS'200814'
p863
I2556
sS'202699'
p864
I2885
sS'200811'
p865
I2567
sS'201950'
p866
I2748
sI1626780
I1829
sS'175'
p867
I3338
sS'200818'
p868
I2551
sS'202326'
p869
I2772
sS'201785'
p870
I2726
sS'7'
p871
I3213
sS'170'
p872
I1983
sS'204098'
p873
I3102
sS'2054'
p874
I2086
sI201446
I1178
sS'2574'
p875
I2463
sS'2056'
p876
I2283
sS'2572'
p877
I2851
sS'2573'
p878
I2413
sS'2570'
p879
I2782
sS'2571'
p880
I2392
sS'2048'
p881
I2178
sS'2370'
p882
I2345
sS'2594'
p883
I2398
sS'1627850'
p884
I3182
sS'2590'
p885
I2378
sS'2591'
p886
I2603
sS'2592'
p887
I2456
sS'1627851'
p888
I3181
sS'203077'
p889
I2931
sS'2599'
p890
I2483
sS'201814'
p891
I2873
sS'1871'
p892
I3425
sS'1607'
p893
I2131
sS'977'
p894
I1920
sS'976'
p895
I2314
sS'971'
p896
I3303
sS'970'
p897
I1929
sS'979'
p898
I2051
sS'978'
p899
I1946
sS'182'
p900
I2135
sS'183'
p901
I3341
sS'180'
p902
I2095
sS'181'
p903
I3298
sS'187'
p904
I3264
sS'184'
p905
I3329
sS'185'
p906
I1942
sS'2624'
p907
I2664
sS'1919'
p908
I2114
sS'1918'
p909
I1935
sS'1911'
p910
I1926
sS'1913'
p911
I2305
sI201563
I1134
sI201564
I1132
sI201565
I1173
sI201566
I1179
sI201567
I1146
sI201568
I1160
sI201569
I1165
sI201570
I1140
sI201571
I1157
sI201572
I1168
sI201573
I1154
sI201574
I1150
sI201575
I1137
sI201576
I1175
sI201577
I1172
sI201578
I1144
sI201579
I1136
sI201580
I1162
sI201581
I1149
sI201582
I1158
sI201583
I1167
sI201584
I1142
sI201585
I1215
sI201586
I1223
sI201587
I1152
sI201588
I1145
sI201589
I1130
sI201590
I1151
sI201591
I1233
sI201592
I1203
sI201593
I1299
sI201594
I1156
sI201595
I1229
sI201596
I1135
sS'2758'
p912
I2464
sI201599
I1166
sI201600
I1262
sI201601
I1139
sI201602
I1180
sI201603
I1164
sI201604
I1169
sI201605
I1174
sI201606
I1769
sI201607
I1843
sI201609
I1171
sI201611
I1143
sI201612
I1196
sI201616
I1148
sS'203094'
p913
I2922
sI201619
I1590
sI201621
I1842
sS'203090'
p914
I2918
sI201623
I1294
sI201627
I1176
sI201628
I1147
sI201629
I1129
sS'203098'
p915
I3099
sI201631
I1818
sI201632
I1133
sI201633
I1177
sI201634
I1181
sS'202412'
p916
I3000
sS'202419'
p917
I2783
sS'777'
p918
I3269
sS'770'
p919
I2048
sS'779'
p920
I1916
sS'77'
p921
I2203
sS'76'
p922
I2214
sS'73'
p923
I3280
sS'72'
p924
I2352
sS'70'
p925
I2157
sI1627098
I1658
sS'200786'
p926
I2571
sS'1043'
p927
I2297
sS'1049'
p928
I2424
sS'201951'
p929
I3146
sS'1683'
p930
I3384
sS'1432'
p931
I3259
sS'101204'
p932
I3452
sS'1627834'
p933
I3145
sS'1627832'
p934
I3195
sS'1527'
p935
I3351
sS'200784'
p936
I2569
sS'1915'
p937
I2199
sS'1917'
p938
I2476
sI201785
I1245
sI201787
I1868
sI201802
I1771
sI201805
I1206
sI201814
I1264
sI201821
I1896
sS'203898'
p939
I3064
sS'101160'
p940
I2544
sS'203897'
p941
I3023
sS'203894'
p942
I3060
sI201858
I1159
sS'310'
p943
I3236
sS'317'
p944
I2092
sS'316'
p945
I3306
sS'203893'
p946
I3129
sI1627744
I1886
sS'200780'
p947
I2747
sI201880
I1306
sI1627293
I1612
sS'2756'
p948
I2426
sS'2757'
p949
I2444
sS'2754'
p950
I2807
sS'2755'
p951
I2433
sS'1627826'
p952
I3152
sS'2752'
p953
I2513
sS'200782'
p954
I2608
sS'201956'
p955
I2716
sS'200781'
p956
I3390
sS'2751'
p957
I2430
sI201933
I1281
sI201934
I1221
sI201935
I1224
sI201936
I1231
sI201937
I1365
sI201938
I1211
sI201939
I1205
sI201941
I1235
sI201942
I1187
sI201943
I1185
sI201944
I1200
sI201945
I1199
sI201946
I1236
sI201947
I1216
sI201948
I1188
sI201949
I1208
sI201950
I1193
sI201951
I1237
sI201952
I1184
sI201953
I1222
sI201954
I1238
sS'2694'
p958
I2659
sI201956
I1232
sI201957
I1225
sI201958
I1210
sI201959
I1209
sI201960
I1220
sI201961
I1212
sI201962
I1202
sI201963
I1257
sI201964
I1476
sI201965
I1345
sI201966
I1228
sI201967
I1241
sI201969
I1190
sI201970
I1218
sI201971
I1195
sI201972
I1230
sI101108
I990
sI201974
I1191
sI201975
I1194
sI201976
I1515
sI201977
I1239
sI201978
I1226
sI201979
I1497
sI201980
I1183
sI201981
I1217
sI201985
I1192
sI201986
I1384
sI201988
I1267
sI201991
I1219
sS'203524'
p959
I3076
sS'2294'
p960
I2311
sS'2569'
p961
I2409
sS'2568'
p962
I2514
sS'2561'
p963
I2886
sS'2560'
p964
I2393
sS'2563'
p965
I2412
sS'2562'
p966
I2376
sS'2565'
p967
I2387
sS'2564'
p968
I2487
sS'2567'
p969
I2365
sS'2566'
p970
I2368
sS'101138'
p971
I2740
sS'101139'
p972
I2517
sS'2367'
p973
I3442
sS'2366'
p974
I2333
sS'101134'
p975
I2535
sS'101135'
p976
I2528
sS'101132'
p977
I2818
sS'101133'
p978
I2657
sS'101130'
p979
I2496
sS'101131'
p980
I2515
sS'2586'
p981
I2382
sS'2585'
p982
I2384
sS'2584'
p983
I2397
sS'2581'
p984
I2391
sS'1626184'
p985
I3405
sS'1612'
p986
I3323
sS'2588'
p987
I2466
sS'1861'
p988
I3424
sI202066
I1198
sI202067
I1846
sI202068
I1234
sS'1864'
p989
I3432
sI202077
I1531
sI202079
I1895
sS'964'
p990
I3238
sI202081
I1300
sI202082
I1247
sI202083
I1213
sS'960'
p991
I1948
sS'961'
p992
I2140
sS'962'
p993
I2438
sI202087
I1201
sI202091
I1482
sS'969'
p994
I1940
sS'2109'
p995
I2373
sS'203095'
p996
I3070
sS'2101'
p997
I2219
sS'2106'
p998
I2144
sS'203093'
p999
I3161
sS'200788'
p1000
I2652
sS'2639'
p1001
I2385
sS'203091'
p1002
I3457
sS'203798'
p1003
I3084
sI202130
I1207
sI202132
I1186
sS'201148'
p1004
I3072
sI202148
I1370
sS'201948'
p1005
I2764
sS'2037'
p1006
I2447
sS'2036'
p1007
I2427
sS'2743'
p1008
I2454
sS'2034'
p1009
I2128
sS'2745'
p1010
I2453
sS'2032'
p1011
I2366
sS'2031'
p1012
I2167
sS'2030'
p1013
I2198
sS'2749'
p1014
I2482
sS'2748'
p1015
I2542
sS'203099'
p1016
I2969
sS'2039'
p1017
I2458
sS'2038'
p1018
I2117
sS'202338'
p1019
I2828
sS'891'
p1020
I2026
sI202178
I1214
sS'893'
p1021
I2257
sS'894'
p1022
I3251
sS'895'
p1023
I1951
sS'896'
p1024
I2209
sS'202330'
p1025
I2788
sS'202331'
p1026
I2887
sS'202332'
p1027
I2801
sS'202333'
p1028
I2809
sS'202334'
p1029
I2819
sS'202335'
p1030
I2902
sS'202336'
p1031
I2817
sS'202337'
p1032
I2784
sS'203087'
p1033
I2947
sS'203086'
p1034
I2898
sS'203081'
p1035
I2900
sI202197
I1822
sS'203083'
p1036
I2938
sS'203082'
p1037
I2926
sS'203089'
p1038
I2906
sS'203088'
p1039
I2913
sS'203183'
p1040
I3458
sS'1619'
p1041
I3379
sI202220
I1277
sS'203613'
p1042
I3114
sI202227
I1369
sS'1539'
p1043
I3311
sS'202933'
p1044
I3002
sI202238
I3388
sS'768'
p1045
I3247
sS'769'
p1046
I3330
sS'762'
p1047
I3291
sS'1960'
p1048
I1939
sS'760'
p1049
I2225
sS'761'
p1050
I2195
sS'766'
p1051
I3287
sS'764'
p1052
I2148
sS'765'
p1053
I2182
sS'1073'
p1054
I2080
sS'202688'
p1055
I2863
sS'202689'
p1056
I2880
sS'202682'
p1057
I2854
sS'202683'
p1058
I2852
sS'202685'
p1059
I2924
sS'202686'
p1060
I2862
sS'202687'
p1061
I2883
sS'1096'
p1062
I3340
sS'678'
p1063
I3297
sS'679'
p1064
I2122
sS'1093'
p1065
I3256
sS'674'
p1066
I1964
sS'1627849'
p1067
I3185
sS'677'
p1068
I2467
sS'201628'
p1069
I2691
sS'672'
p1070
I3431
sS'673'
p1071
I2599
sI202322
I1244
sI202323
I1261
sI202324
I1293
sI202325
I1297
sI202326
I1288
sI202327
I1275
sI202328
I1263
sI202329
I1283
sI202330
I1291
sI202331
I1250
sI202332
I1272
sI202333
I1295
sI202334
I1284
sI202335
I1253
sI202336
I1266
sI202337
I1273
sI202338
I1246
sI202339
I1282
sI202340
I1254
sI202341
I1363
sI202342
I1321
sI202343
I1274
sI202344
I1280
sI202345
I1260
sI202346
I1286
sI202347
I1287
sI202348
I1243
sI202349
I1296
sI202350
I1316
sI202351
I1298
sI1627761
I1657
sI202354
I1344
sI202355
I1342
sI202356
I1268
sI202357
I1653
sI1627767
I1716
sI202360
I1271
sI202361
I1270
sI202362
I1346
sI202363
I1416
sI202365
I1278
sI202366
I1305
sI1627775
I1682
sI1627777
I1727
sI1627778
I1854
sI202371
I1897
sI1627780
I1793
sI1627781
I1695
sI202374
I1285
sI1627783
I1680
sI202376
I1256
sI202377
I1242
sI202378
I1292
sI202379
I1290
sI202380
I1249
sI1627789
I1667
sI202382
I1269
sI1627791
I1688
sI202385
I1348
sI202386
I1259
sI202388
I1336
sI202389
I1265
sI202390
I1251
sI202391
I1276
sI202392
I1907
sI202395
I1279
sI202396
I1255
sI202397
I1313
sI202399
I1427
sI1627812
I1684
sI202406
I1844
sI202407
I1652
sI202408
I1863
sI1627817
I1694
sI1627819
I1899
sI202412
I1258
sI1627823
I1699
sS'1525'
p1072
I3344
sI1627826
I1730
sI202419
I1354
sS'1520'
p1073
I2263
sS'1521'
p1074
I2022
sS'201941'
p1075
I2757
sI1627832
I1681
sS'1626145'
p1076
I3120
sI1627834
I1697
sI1627835
I1664
sS'1529'
p1077
I3419
sS'1916'
p1078
I2307
sI1627848
I1668
sI1627849
I1708
sI1627850
I1706
sI1627851
I1702
sI1627852
I1685
sI1627854
I1677
sI1627855
I1692
sI1627861
I1913
sI1627863
I1830
sI202458
I1312
sI1627868
I1826
sS'1627774'
p1079
I3156
sI1627875
I1825
sI1627879
I1796
sI1627884
I1670
sI202498
I1421
sS'101230'
p1080
I2497
sS'101236'
p1081
I2838
sI202536
I1333
sS'201632'
p1082
I2663
sS'201945'
p1083
I2743
sS'200768'
p1084
I2609
sI202545
I1777
sS'78'
p1085
I3412
sS'202722'
p1086
I3148
sS'203486'
p1087
I2993
sS'143'
p1088
I3348
sS'101129'
p1089
I2746
sI1628021
I1794
sS'101125'
p1090
I3445
sS'101124'
p1091
I2519
sS'101127'
p1092
I2493
sS'101126'
p1093
I2527
sI202620
I1717
sS'2357'
p1094
I2435
sI202622
I1845
sS'101122'
p1095
I2524
sS'112'
p1096
I3267
sS'1899'
p1097
I2371
sS'1894'
p1098
I1976
sS'1895'
p1099
I2085
sS'1897'
p1100
I2281
sS'1890'
p1101
I2037
sS'1891'
p1102
I3011
sS'1893'
p1103
I3374
sS'959'
p1104
I2437
sS'958'
p1105
I2325
sS'2130'
p1106
I2073
sS'951'
p1107
I2118
sS'950'
p1108
I2004
sS'953'
p1109
I2310
sS'952'
p1110
I2534
sS'955'
p1111
I2151
sS'954'
p1112
I2011
sS'957'
p1113
I2213
sS'956'
p1114
I2798
sS'1626210'
p1115
I3100
sS'1626176'
p1116
I3407
sI202681
I1335
sI202682
I1366
sI202683
I1326
sI202684
I1334
sI202685
I1378
sI202686
I1328
sI202687
I1317
sI202688
I1309
sI202689
I1318
sI202690
I1340
sI202691
I1350
sI202692
I1325
sI202693
I1355
sI202694
I1372
sI202695
I1361
sI202696
I1322
sI202697
I1303
sI202698
I1327
sI202699
I1324
sI202700
I1435
sI202701
I1353
sI202702
I1337
sI202703
I1518
sI202704
I1347
sI202705
I1331
sI202706
I1338
sI202707
I1308
sI202708
I1343
sI202709
I1362
sI202710
I1323
sI202711
I1528
sI202712
I1315
sI202713
I1412
sI202714
I1330
sI202715
I1341
sI202716
I1332
sI202717
I1302
sI202718
I1371
sI202719
I1409
sI202720
I1349
sI202721
I1406
sI202722
I1678
sI202723
I1367
sI202724
I1351
sI202725
I1304
sI202726
I1356
sI202727
I1820
sI202728
I1847
sI202729
I1358
sI202730
I1320
sI202731
I1310
sI202732
I1314
sI202734
I1307
sI202738
I1339
sS'200848'
p1117
I3448
sS'203500'
p1118
I2988
sS'203501'
p1119
I2982
sS'203502'
p1120
I3009
sS'203503'
p1121
I3158
sS'203504'
p1122
I2962
sS'203505'
p1123
I3017
sS'203506'
p1124
I2985
sS'203507'
p1125
I2978
sS'203508'
p1126
I3067
sS'2852'
p1127
I2540
sS'PLAYER_ID'
p1128
I1915
sI202775
I1329
sI202779
I1484
sS'200840'
p1129
I2606
sI202809
I1319
sI202810
I1819
sI202814
I1773
sS'719'
p1130
I3277
sS'718'
p1131
I2242
sS'717'
p1132
I1979
sS'716'
p1133
I3281
sS'715'
p1134
I3366
sS'714'
p1135
I2498
sS'713'
p1136
I3363
sS'711'
p1137
I2134
sS'710'
p1138
I3215
sS'200081'
p1139
I2631
sS'201168'
p1140
I2777
sS'101209'
p1141
I2494
sS'202697'
p1142
I2875
sS'202696'
p1143
I2879
sS'202695'
p1144
I2841
sS'202694'
p1145
I2915
sS'202693'
p1146
I2842
sS'202692'
p1147
I2853
sS'202690'
p1148
I2837
sS'1061'
p1149
I3347
sS'1065'
p1150
I2164
sS'1064'
p1151
I3234
sI202862
I1368
sS'202698'
p1152
I2859
sS'202327'
p1153
I2904
sS'201164'
p1154
I2667
sS'202325'
p1155
I2792
sS'202324'
p1156
I2786
sS'202323'
p1157
I2815
sS'202322'
p1158
I2830
sS'201165'
p1159
I2654
sS'1667'
p1160
I3345
sS'1666'
p1161
I3353
sI202874
I1352
sS'201166'
p1162
I2789
sS'202329'
p1163
I3123
sS'202328'
p1164
I2814
sI202880
I1848
sS'1086'
p1165
I2054
sS'1085'
p1166
I3376
sS'101207'
p1167
I2522
sS'1627854'
p1168
I3147
sS'1627855'
p1169
I3404
sS'201160'
p1170
I2648
sS'1089'
p1171
I3360
sS'1088'
p1172
I1971
sS'201162'
p1173
I2625
sS'2824'
p1174
I3447
sS'2825'
p1175
I2475
sS'1628021'
p1176
I3142
sS'201163'
p1177
I2644
sS'2823'
p1178
I2457
sS'203476'
p1179
I2975
sI202918
I1774
sI1847
I1804
sI202933
I1443
sS'448'
p1180
I1974
sI202951
I1357
sI202952
I1364
sS'442'
p1181
I2227
sS'441'
p1182
I2408
sS'440'
p1183
I2066
sS'446'
p1184
I2005
sS'445'
p1185
I2319
sI202962
I1433
sS'1545'
p1186
I3328
sS'1542'
p1187
I2237
sI202970
I1359
sS'697'
p1188
I2381
sS'38'
p1189
I3335
sS'32'
p1190
I3229
sS'31'
p1191
I3285
sS'1541'
p1192
I2036
sS'37'
p1193
I3265
sS'1536'
p1194
I2200
sS'1535'
p1195
I3319
sS'1533'
p1196
I2253
sS'1532'
p1197
I3336
sS'1531'
p1198
I2243
sI203006
I1849
sS'339'
p1199
I2038
sS'335'
p1200
I3208
sS'330'
p1201
I2093
sS'333'
p1202
I3237
sS'1548'
p1203
I2507
sS'2061'
p1204
I2318
sS'101189'
p1205
I2733
sS'899'
p1206
I3317
sS'203490'
p1207
I2987
sS'101187'
p1208
I2521
sS'101185'
p1209
I2586
sS'101184'
p1210
I2547
sI203076
I1417
sI203077
I1426
sI203078
I1430
sI203079
I1431
sI203080
I1444
sI203081
I1395
sI203082
I1380
sI203083
I1432
sI203084
I1438
sI203085
I1418
sI203086
I1396
sI203087
I1437
sI203088
I1404
sI203089
I1381
sI203090
I1387
sI203091
I1447
sI203092
I1385
sI203093
I1446
sI203094
I1390
sI203095
I1410
sI203096
I1425
sI203097
I1775
sI203098
I1373
sI203099
I1496
sI203100
I1423
sI203101
I1394
sI203102
I1382
sI203103
I1445
sI203104
I1424
sI203105
I1441
sI203106
I1428
sI203107
I1674
sI203108
I1400
sI203109
I1399
sI203110
I1439
sI203111
I1392
sI203112
I1379
sI203113
I1442
sI203114
I1413
sI203115
I1397
sI203116
I1408
sI203117
I1391
sI203118
I1374
sI203119
I1414
sI203120
I1583
sI203121
I1420
sI203122
I1411
sI203123
I1582
sI203124
I1389
sI203126
I1776
sI203128
I1557
sI203129
I1403
sI203130
I1867
sI203133
I1479
sI203135
I1407
sI203136
I1504
sI203138
I1469
sI203139
I1415
sI203141
I1402
sI203142
I1375
sI203143
I1377
sI203144
I1429
sI203145
I1440
sI203146
I1436
sI203147
I1516
sI203148
I1419
sS'234'
p1211
I3292
sI203156
I1470
sI203158
I1386
sI203159
I1434
sI203162
I1393
sS'2343'
p1212
I2268
sS'2349'
p1213
I2271
sS'2066'
p1214
I2201
sI203183
I1487
sS'101118'
p1215
I2545
sS'101119'
p1216
I2511
sI203186
I1639
sI203187
I1422
sS'101110'
p1217
I2492
sS'101111'
p1218
I2529
sS'101112'
p1219
I2526
sS'101113'
p1220
I2587
sS'101114'
p1221
I2516
sI203197
I1405
sI203199
I1388
sI203200
I1383
sI203203
I1401
sS'203527'
p1222
I2958
sI203210
I1572
sS'2067'
p1223
I2215
sS'1889'
p1224
I2566
sS'1888'
p1225
I1962
sS'1887'
p1226
I2075
sS'1886'
p1227
I2064
sS'1885'
p1228
I2401
sS'1884'
p1229
I2176
sS'1883'
p1230
I2480
sS'1882'
p1231
I2711
sS'2121'
p1232
I3430
sS'2124'
p1233
I2250
sS'948'
p1234
I2098
sS'949'
p1235
I1928
sS'2128'
p1236
I2112
sS'2229'
p1237
I2300
sS'940'
p1238
I3301
sS'1967'
p1239
I3429
sS'1626209'
p1240
I3108
sS'1626204'
p1241
I3091
sS'1626202'
p1242
I3117
sS'1626203'
p1243
I3169
sI203263
I1474
sI203268
I1454
sS'203268'
p1244
I3071
sS'133'
p1245
I2177
sS'137'
p1246
I1996
sS'136'
p1247
I2174
sS'134'
p1248
I2068
sI203296
I3470
sS'297'
p1249
I2249
sI203315
I1494
sI203317
I1821
sI203318
I1510
sS'203519'
p1250
I3397
sS'203518'
p1251
I3173
sS'203516'
p1252
I3059
sS'203515'
p1253
I3136
sS'203512'
p1254
I3082
sS'203511'
p1255
I3066
sS'101115'
p1256
I2491
sS'202918'
p1257
I3454
sI203382
I1501
sS'708'
p1258
I2076
sS'709'
p1259
I3294
sS'704'
p1260
I3231
sS'202779'
p1261
I3003
sS'706'
p1262
I3273
sS'707'
p1263
I3270
sS'700'
p1264
I3417
sS'701'
p1265
I3410
sS'702'
p1266
I2353
sS'703'
p1267
I2100
sS'88'
p1268
I3288
sS'145'
p1269
I1960
sS'82'
p1270
I1952
sS'81'
p1271
I3413
sS'87'
p1272
I2231
sS'84'
p1273
I2096
sS'85'
p1274
I1936
sS'140'
p1275
I3252
sI202359
I1885
sS'416'
p1276
I3334
sS'202353'
p1277
I3088
sS'202350'
p1278
I2891
sS'202351'
p1279
I2795
sS'202356'
p1280
I2785
sS'202357'
p1281
I3119
sS'202354'
p1282
I2866
sS'202355'
p1283
I2840
sS'202359'
p1284
I3455
sI203457
I1555
sI203458
I1481
sI203459
I1492
sI203460
I1511
sI203461
I1506
sI203462
I1483
sI203463
I1507
sI203467
I1781
sI203468
I1477
sI203469
I1453
sI203471
I1450
sI203473
I1499
sI203474
I1866
sI203475
I1550
sI203476
I1478
sI203477
I1503
sS'2839'
p1285
I2546
sI203479
I1498
sI203480
I1782
sI203481
I1485
sI203482
I1456
sS'201981'
p1286
I2736
sI203484
I1459
sI203485
I1570
sI203486
I1455
sI203487
I1471
sI203488
I1449
sI203489
I1486
sI203490
I1475
sI203491
I1460
sI203492
I1508
sI203493
I1491
sI203495
I1514
sI203496
I1554
sI203497
I1490
sI203498
I1480
sI203499
I1512
sI203500
I1500
sI203501
I1493
sI203502
I1462
sI203503
I1467
sI203504
I1488
sI203505
I1779
sI203506
I1502
sI203507
I1451
sI203508
I1466
sI203510
I1871
sI203511
I1785
sI203512
I1586
sI203513
I1468
sI203515
I1457
sI203516
I1536
sI203517
I1780
sI203518
I1722
sI203519
I1778
sS'458'
p1287
I2019
sI203521
I1464
sI203524
I1463
sI203526
I1613
sI203527
I1509
sS'101120'
p1288
I2506
sI203530
I1552
sS'456'
p1289
I1997
sS'457'
p1290
I3278
sI203539
I1513
sI203540
I1461
sI203543
I1505
sI203544
I1448
sI203545
I1452
sI203546
I1489
sI203548
I1517
sI203552
I1549
sS'203139'
p1291
I2940
sI203561
I1473
sI203564
I3469
sI203565
I1577
sS'1502'
p1292
I2640
sI203569
I1458
sS'1500'
p1293
I2342
sS'1501'
p1294
I2120
sS'1506'
p1295
I2062
sS'1507'
p1296
I2149
sS'1504'
p1297
I2442
sS'1505'
p1298
I1969
sS'1508'
p1299
I2448
sS'1509'
p1300
I2486
sI203580
I1573
sI203584
I1526
sI203585
I1691
sS'203138'
p1301
I2997
sS'202407'
p1302
I3045
sI203613
I1645
sS'1627733'
p1303
I3203
sS'1627884'
p1304
I3168
sS'55'
p1305
I3314
sS'947'
p1306
I2188
sS'203928'
p1307
I3037
sI203648
I1791
sS'201582'
p1308
I2701
sS'201583'
p1309
I2679
sS'201580'
p1310
I2702
sS'201581'
p1311
I2849
sS'201586'
p1312
I2729
sS'201587'
p1313
I2665
sS'201584'
p1314
I2703
sS'201585'
p1315
I2695
sS'201588'
p1316
I2689
sS'201589'
p1317
I2660
sS'1626167'
p1318
I3116
sS'2873'
p1319
I2474
sS'1626166'
p1320
I3092
sS'101211'
p1321
I2611
sS'323'
p1322
I1994
sS'320'
p1323
I3289
sS'1626164'
p1324
I3098
sS'324'
p1325
I2078
sS'1626163'
p1326
I3121
sS'328'
p1327
I3342
sS'1626162'
p1328
I3096
sS'56'
p1329
I1993
sS'1626161'
p1330
I3103
sS'1133'
p1331
I3332
sS'202130'
p1332
I2882
sS'101107'
p1333
I2942
sS'101106'
p1334
I2501
sS'101109'
p1335
I2520
sS'1626169'
p1336
I3133
sS'1626168'
p1337
I3085
sS'204038'
p1338
I3049
sS'201858'
p1339
I2678
sS'204028'
p1340
I3016
sI203798
I1525
sS'200747'
p1341
I2593
sI203805
I1587
sS'200746'
p1342
I2562
sI203810
I1472
sS'200745'
p1343
I2581
sI203816
I1465
sS'2484'
p1344
I2374
sS'204022'
p1345
I3046
sS'2248'
p1346
I2238
sS'2249'
p1347
I2282
sS'1626273'
p1348
I3090
sS'2245'
p1349
I2306
sS'2246'
p1350
I2335
sS'2240'
p1351
I2389
sS'2241'
p1352
I2399
sS'2242'
p1353
I3443
sS'2243'
p1354
I2255
sS'994'
p1355
I2002
sS'2466'
p1356
I2400
sS'200748'
p1357
I2742
sS'990'
p1358
I2228
sS'992'
p1359
I3266
sS'201572'
p1360
I2680
sS'999'
p1361
I3337
sS'998'
p1362
I2126
sS'120'
p1363
I1981
sS'121'
p1364
I2142
sS'123'
p1365
I2244
sS'124'
p1366
I1943
sS'128'
p1367
I2217
sS'204025'
p1368
I3026
sS'2068'
p1369
I2103
sS'2798'
p1370
I2469
sI203893
I1585
sI203894
I1538
sI203895
I1589
sS'2060'
p1371
I2510
sI203897
I1569
sI203898
I1533
sS'2063'
p1372
I2269
sI203900
I1527
sI203901
I1539
sI203902
I1721
sI203903
I1546
sI203906
I1563
sI203909
I1562
sI203910
I1561
sI203912
I1616
sI203913
I1547
sI203914
I1551
sI203915
I1532
sI203917
I1544
sI203918
I1580
sI203919
I1571
sI203921
I1522
sI203922
I1559
sI203923
I1566
sI203924
I1558
sI203925
I1560
sI203926
I1520
sI203928
I1529
sI203930
I1635
sI203932
I1540
sI203933
I1530
sI203934
I1625
sI203935
I1565
sI203937
I1541
sI203939
I1564
sI203940
I1567
sI203942
I1823
sI203943
I1524
sI203944
I1618
sI203945
I1581
sI203946
I1519
sI203948
I1534
sI203949
I1543
sI203950
I1576
sI203951
I1630
sI203952
I1568
sI203953
I1601
sI203954
I1710
sI203955
I1784
sI203956
I1542
sI203957
I1578
sI203958
I1584
sI203960
I1556
sI203961
I1792
sI203962
I1723
sI203963
I1575
sS'2668'
p1373
I2452
sI203967
I1666
sI203968
I1908
sS'2228'
p1374
I2267
sS'203162'
p1375
I2917
sI203991
I1603
sI203994
I1553
sI203996
I1602
sI203998
I1647
sI203999
I1605
sI204001
I1640
sI204002
I1615
sI204014
I1574
sS'202341'
p1376
I2779
sS'202343'
p1377
I2870
sS'202342'
p1378
I2816
sI204020
I1535
sI204021
I1850
sI204022
I1783
sS'202349'
p1379
I2808
sI204025
I1638
sS'729'
p1380
I3232
sI204028
I1545
sS'1838'
p1381
I2260
sI204033
I1851
sS'1627879'
p1382
I3206
sI204037
I1523
sI204038
I1521
sI204040
I3465
sS'1627875'
p1383
I3408
sI204054
I1537
sS'389'
p1384
I2191
sS'2800'
p1385
I2472
sI204060
I1579
sS'2804'
p1386
I2669
sI204065
I1786
sI204066
I1655
sI204067
I1548
sS'1425'
p1387
I1959
sS'1429'
p1388
I3361
sS'939'
p1389
I3420
sI204079
I1787
sS'731'
p1390
I2020
sS'733'
p1391
I3248
sS'938'
p1392
I3217
sS'735'
p1393
I1937
sS'734'
p1394
I3240
sS'739'
p1395
I1978
sI204098
I1869
sS'469'
p1396
I2173
sS'468'
p1397
I2070
sI1627787
I1729
sS'461'
p1398
I2110
sI1627362
I1610
sS'462'
p1399
I3331
sS'201141'
p1400
I2666
sS'932'
p1401
I2044
sS'1519'
p1402
I2035
sS'2408'
p1403
I2462
sS'1515'
p1404
I1972
sS'1514'
p1405
I2410
sS'1517'
p1406
I2104
sS'2409'
p1407
I2331
sS'1511'
p1408
I3318
sS'1510'
p1409
I2288
sS'1513'
p1410
I1947
sS'203104'
p1411
I2994
sI201973
I1189
sS'201591'
p1412
I2761
sS'201590'
p1413
I2671
sS'201593'
p1414
I2794
sS'201592'
p1415
I3453
sS'201595'
p1416
I2820
sS'201594'
p1417
I2684
sS'201596'
p1418
I2705
sS'203459'
p1419
I2990
sS'356'
p1420
I3290
sS'355'
p1421
I3274
sS'353'
p1422
I1968
sS'359'
p1423
I2234
sS'358'
p1424
I2041
sS'2321'
p1425
I2439
sS'101177'
p1426
I2500
sS'101179'
p1427
I2504
sS'289'
p1428
I3312
sS'288'
p1429
I3245
sS'1112'
p1430
I1966
sS'281'
p1431
I2124
sS'280'
p1432
I2102
sS'283'
p1433
I2123
sS'287'
p1434
I3242
sS'1114'
p1435
I2169
sS'203561'
p1436
I2999
sS'262'
p1437
I2003
sS'265'
p1438
I3254
sS'2499'
p1439
I2388
sS'201169'
p1440
I2633
sS'2257'
p1441
I2241
sS'2256'
p1442
I2361
sS'2254'
p1443
I2245
sS'2253'
p1444
I2351
sS'1626266'
p1445
I3125
sS'2250'
p1446
I2326
sS'988'
p1447
I2047
sS'989'
p1448
I3282
sS'203122'
p1449
I2943
sS'2471'
p1450
I2320
sS'2470'
p1451
I2489
sS'982'
p1452
I3276
sS'983'
p1453
I3434
sS'980'
p1454
I2799
sS'981'
p1455
I2340
sS'987'
p1456
I3414
sS'2198'
p1457
I2256
sS'116'
p1458
I3249
sS'111'
p1459
I2081
sS'201938'
p1460
I2720
sS'201937'
p1461
I2858
sS'201936'
p1462
I2715
sS'201935'
p1463
I2728
sS'201934'
p1464
I2752
sS'165'
p1465
I3385
sI204456
I1632
sS'2788'
p1466
I2614
sS'2079'
p1467
I3440
sS'2078'
p1468
I2298
sS'203996'
p1469
I3130
sS'203318'
p1470
I3012
sS'203994'
p1471
I3155
sS'2073'
p1472
I2226
sS'2072'
p1473
I2284
sS'2071'
p1474
I2145
sS'203998'
p1475
I3038
sS'2074'
p1476
I2308
sS'203120'
p1477
I3022
sS'101249'
p1478
I2925
sS'202970'
p1479
I2954
sS'2206'
p1480
I2272
sS'296'
p1481
I1923
sS'203584'
p1482
I3062
sS'203199'
p1483
I2920
sS'2679'
p1484
I2415
sS'203197'
p1485
I2914
sS'202718'
p1486
I3191
sS'202719'
p1487
I2983
sS'202712'
p1488
I2890
sS'202713'
p1489
I2937
sS'202711'
p1490
I3036
sS'202716'
p1491
I2844
sS'202714'
p1492
I2861
sS'202715'
p1493
I2839
sS'1630'
p1494
I2138
sS'203956'
p1495
I3041
sS'1985'
p1496
I2396
sS'1983'
p1497
I2356
sI101195
I935
sS'202379'
p1498
I2787
sS'202809'
p1499
I2881
sS'202374'
p1500
I2822
sS'202371'
p1501
I2813
sS'965'
p1502
I1921
sS'2810'
p1503
I2554
sS'202620'
p1504
I3024
sS'202397'
p1505
I2905
sS'202395'
p1506
I2802
sS'202390'
p1507
I2778
sS'202391'
p1508
I2874
sS'2365'
p1509
I2930
sS'202399'
p1510
I2933
sS'727'
p1511
I2187
sS'724'
p1512
I2129
sS'89'
p1513
I2470
sS'722'
p1514
I1941
sS'1749'
p1515
I2431
sS'721'
p1516
I3235
sS'1744'
p1517
I2236
sS'1745'
p1518
I3370
sS'1746'
p1519
I3428
sS'1747'
p1520
I2125
sS'1740'
p1521
I1995
sS'1741'
p1522
I2141
sS'1742'
p1523
I1999
sS'1743'
p1524
I2172
sS'204020'
p1525
I3058
sS'2429'
p1526
I2330
sS'201960'
p1527
I2751
sS'49'
p1528
I2012
sS'47'
p1529
I3283
sS'45'
p1530
I3349
sS'42'
p1531
I1965
sS'43'
p1532
I1961
sS'1380'
p1533
I3293
sS'1562'
p1534
I1963
sS'1563'
p1535
I2193
sS'1564'
p1536
I3358
sS'1565'
p1537
I2034
sS'201969'
p1538
I2763
sS'201612'
p1539
I2723
sS'201611'
p1540
I2806
sS'201616'
p1541
I2774
sS'966'
p1542
I2162
sS'1863'
p1543
I2574
sS'1365'
p1544
I3218
sS'1361'
p1545
I3302
sS'1719'
p1546
I2052
s.